target datalayout = "e-m:e-p270:32:32-p271:32:32-p272:64:64-i64:64-i128:128-f80:128-n8:16:32:64-S128"
target triple = "x86_64-pc-linux-gnu"

@.str.138 = private unnamed_addr constant [1 x i8] zeroinitializer, align 1
@.str.222 = private unnamed_addr constant [4 x i8] c"/%u\00", align 1
@.str.225 = private unnamed_addr constant [3 x i8] c"%X\00", align 1

; Function Attrs: alwaysinline nounwind
define internal ptr @memcpy.inline(ptr noalias %0, ptr noalias %1, i64 %2) #13 {
  %4 = alloca ptr, align 8
  %5 = alloca ptr, align 8
  %6 = alloca i64, align 8
  store ptr %0, ptr %4, align 8
  store ptr %1, ptr %5, align 8
  store i64 %2, ptr %6, align 8
  %7 = load ptr, ptr %4, align 8
  %8 = load ptr, ptr %5, align 8
  %9 = load i64, ptr %6, align 8
  %10 = load ptr, ptr %4, align 8
  %11 = call i64 @llvm.objectsize.i64.p0(ptr %10, i1 false, i1 true, i1 true)
  %12 = call ptr @__memcpy_chk(ptr noundef %7, ptr noundef %8, i64 noundef %9, i64 noundef %11) #17
  ret ptr %12
}

; Function Attrs: alwaysinline nounwind
define internal ptr @memset.inline(ptr %0, i32 %1, i64 %2) #13 {
  %4 = alloca ptr, align 8
  %5 = alloca i32, align 4
  %6 = alloca i64, align 8
  store ptr %0, ptr %4, align 8
  store i32 %1, ptr %5, align 4
  store i64 %2, ptr %6, align 8
  %7 = load ptr, ptr %4, align 8
  %8 = load i32, ptr %5, align 4
  %9 = load i64, ptr %6, align 8
  %10 = load ptr, ptr %4, align 8
  %11 = call i64 @llvm.objectsize.i64.p0(ptr %10, i1 false, i1 true, i1 true)
  %12 = call ptr @__memset_chk(ptr noundef %7, i32 noundef %8, i64 noundef %9, i64 noundef %11) #17
  ret ptr %12
}

; Function Attrs: null_pointer_is_valid sspstrong uwtable
define internal i32 @get_full_ipv6_addr(ptr noundef %0, ptr noundef %1) #0 {
  %3 = alloca i32, align 4
  %4 = alloca ptr, align 8
  %5 = alloca ptr, align 8
  %6 = alloca [33 x i8], align 16
  %7 = alloca [33 x i8], align 16
  %8 = alloca ptr, align 8
  %9 = alloca i32, align 4
  %10 = alloca i32, align 4
  %11 = alloca i32, align 4
  %12 = alloca i32, align 4
  %13 = alloca i32, align 4
  %14 = alloca i32, align 4
  %15 = alloca i32, align 4
  %16 = alloca i32, align 4
  %17 = alloca ptr, align 8
  %18 = alloca i32, align 4
  store ptr %0, ptr %4, align 8
  store ptr %1, ptr %5, align 8
  call void @llvm.lifetime.start.p0(i64 33, ptr %6) #17
  call void @llvm.lifetime.start.p0(i64 33, ptr %7) #17
  call void @llvm.lifetime.start.p0(i64 8, ptr %8) #17
  call void @llvm.lifetime.start.p0(i64 4, ptr %9) #17
  store i32 0, ptr %9, align 4
  call void @llvm.lifetime.start.p0(i64 4, ptr %10) #17
  store i32 0, ptr %10, align 4
  call void @llvm.lifetime.start.p0(i64 4, ptr %11) #17
  store i32 0, ptr %11, align 4
  call void @llvm.lifetime.start.p0(i64 4, ptr %12) #17
  store i32 0, ptr %12, align 4
  call void @llvm.lifetime.start.p0(i64 4, ptr %13) #17
  store i32 0, ptr %13, align 4
  call void @llvm.lifetime.start.p0(i64 4, ptr %14) #17
  store i32 0, ptr %14, align 4
  call void @llvm.lifetime.start.p0(i64 4, ptr %15) #17
  store i32 0, ptr %15, align 4
  call void @llvm.lifetime.start.p0(i64 4, ptr %16) #17
  store i32 128, ptr %16, align 4
  call void @llvm.lifetime.start.p0(i64 8, ptr %17) #17
  store ptr null, ptr %17, align 8
  %19 = load ptr, ptr %5, align 8
  %20 = icmp eq ptr %19, null
  br i1 %20, label %25, label %21

21:                                               ; preds = %2
  %22 = load ptr, ptr %5, align 8
  %23 = call i32 @strcmp(ptr noundef %22, ptr noundef @.str.138) #21
  %24 = icmp eq i32 %23, 0
  br i1 %24, label %25, label %26

25:                                               ; preds = %21, %2
  store i32 -1, ptr %3, align 4
  store i32 1, ptr %18, align 4
  br label %204

26:                                               ; preds = %21
  %27 = load ptr, ptr %4, align 8
  %28 = call ptr @memset.inline(ptr noundef %27, i32 noundef 0, i64 noundef 32) #17
  %29 = load ptr, ptr %5, align 8
  %30 = call ptr @strchr(ptr noundef %29, i32 noundef 47) #21
  store ptr %30, ptr %17, align 8
  %31 = load ptr, ptr %17, align 8
  %32 = icmp ne ptr %31, null
  br i1 %32, label %33, label %41

33:                                               ; preds = %26
  %34 = load ptr, ptr %17, align 8
  %35 = call i32 (ptr, ptr, ...) @__isoc99_sscanf(ptr noundef %34, ptr noundef @.str.222, ptr noundef %16) #17
  %36 = icmp eq i32 %35, -1
  br i1 %36, label %37, label %38

37:                                               ; preds = %33
  store i32 128, ptr %16, align 4
  br label %38

38:                                               ; preds = %37, %33
  %39 = load ptr, ptr %17, align 8
  %40 = getelementptr i8, ptr %39, i64 0
  store i8 0, ptr %40, align 1
  br label %41

41:                                               ; preds = %38, %26
  %42 = load ptr, ptr %5, align 8
  %43 = call i64 @strlen(ptr noundef %42) #21
  %44 = icmp eq i64 %43, 1
  br i1 %44, label %45, label %66

45:                                               ; preds = %41
  %46 = load ptr, ptr %5, align 8
  %47 = getelementptr i8, ptr %46, i64 0
  %48 = load i8, ptr %47, align 1
  %49 = sext i8 %48 to i32
  %50 = icmp eq i32 %49, 42
  br i1 %50, label %51, label %66

51:                                               ; preds = %45
  store i32 0, ptr %13, align 4
  br label %52

52:                                               ; preds = %60, %51
  %53 = load i32, ptr %13, align 4
  %54 = icmp slt i32 %53, 32
  br i1 %54, label %55, label %63

55:                                               ; preds = %52
  %56 = load ptr, ptr %4, align 8
  %57 = load i32, ptr %13, align 4
  %58 = sext i32 %57 to i64
  %59 = getelementptr i8, ptr %56, i64 %58
  store i8 42, ptr %59, align 1
  br label %60

60:                                               ; preds = %55
  %61 = load i32, ptr %13, align 4
  %62 = add i32 %61, 1
  store i32 %62, ptr %13, align 4
  br label %52, !llvm.loop !33

63:                                               ; preds = %52
  %64 = load ptr, ptr %4, align 8
  %65 = getelementptr i8, ptr %64, i64 32
  store i8 0, ptr %65, align 1
  store i32 0, ptr %3, align 4
  store i32 1, ptr %18, align 4
  br label %204

66:                                               ; preds = %45, %41
  %67 = getelementptr inbounds [33 x i8], ptr %6, i64 0, i64 0
  %68 = load ptr, ptr %5, align 8
  %69 = call i32 @get_ipv6_suffix(ptr noundef %67, ptr noundef %68)
  store i32 %69, ptr %9, align 4
  %70 = getelementptr inbounds [33 x i8], ptr %6, i64 0, i64 0
  %71 = call i64 @strlen(ptr noundef %70) #21
  %72 = trunc i64 %71 to i32
  store i32 %72, ptr %10, align 4
  %73 = load i32, ptr %10, align 4
  %74 = icmp slt i32 %73, 32
  br i1 %74, label %75, label %95

75:                                               ; preds = %66
  %76 = call ptr @wmem_packet_scope()
  %77 = load ptr, ptr %5, align 8
  %78 = load ptr, ptr %5, align 8
  %79 = call i64 @strlen(ptr noundef %78) #21
  %80 = load i32, ptr %9, align 4
  %81 = sext i32 %80 to i64
  %82 = sub i64 %79, %81
  %83 = call noalias ptr @wmem_strndup(ptr noundef %76, ptr noundef %77, i64 noundef %82)
  store ptr %83, ptr %8, align 8
  %84 = getelementptr inbounds [33 x i8], ptr %7, i64 0, i64 0
  %85 = load ptr, ptr %8, align 8
  %86 = call i32 @get_ipv6_suffix(ptr noundef %84, ptr noundef %85)
  store i32 %86, ptr %11, align 4
  %87 = getelementptr inbounds [33 x i8], ptr %7, i64 0, i64 0
  %88 = call i64 @strlen(ptr noundef %87) #21
  %89 = trunc i64 %88 to i32
  store i32 %89, ptr %12, align 4
  %90 = load ptr, ptr %4, align 8
  %91 = getelementptr inbounds [33 x i8], ptr %7, i64 0, i64 0
  %92 = load i32, ptr %12, align 4
  %93 = sext i32 %92 to i64
  %94 = call ptr @memcpy.inline(ptr noundef %90, ptr noundef %91, i64 noundef %93) #17
  br label %95

95:                                               ; preds = %75, %66
  store i32 0, ptr %13, align 4
  br label %96

96:                                               ; preds = %110, %95
  %97 = load i32, ptr %13, align 4
  %98 = load i32, ptr %12, align 4
  %99 = sub i32 32, %98
  %100 = load i32, ptr %10, align 4
  %101 = sub i32 %99, %100
  %102 = icmp sle i32 %97, %101
  br i1 %102, label %103, label %113

103:                                              ; preds = %96
  %104 = load ptr, ptr %4, align 8
  %105 = load i32, ptr %13, align 4
  %106 = load i32, ptr %12, align 4
  %107 = add i32 %105, %106
  %108 = sext i32 %107 to i64
  %109 = getelementptr i8, ptr %104, i64 %108
  store i8 48, ptr %109, align 1
  br label %110

110:                                              ; preds = %103
  %111 = load i32, ptr %13, align 4
  %112 = add i32 %111, 1
  store i32 %112, ptr %13, align 4
  br label %96, !llvm.loop !34

113:                                              ; preds = %96
  %114 = load ptr, ptr %4, align 8
  %115 = getelementptr i8, ptr %114, i64 32
  %116 = load i32, ptr %10, align 4
  %117 = sext i32 %116 to i64
  %118 = sub i64 0, %117
  %119 = getelementptr i8, ptr %115, i64 %118
  %120 = getelementptr inbounds [33 x i8], ptr %6, i64 0, i64 0
  %121 = load i32, ptr %10, align 4
  %122 = add i32 %121, 1
  %123 = sext i32 %122 to i64
  %124 = call ptr @memcpy.inline(ptr noundef %119, ptr noundef %120, i64 noundef %123) #17
  store i32 0, ptr %14, align 4
  br label %125

125:                                              ; preds = %184, %113
  %126 = load i32, ptr %14, align 4
  %127 = icmp ult i32 %126, 32
  br i1 %127, label %128, label %187

128:                                              ; preds = %125
  %129 = load i32, ptr %14, align 4
  %130 = add i32 %129, 1
  %131 = mul i32 4, %130
  %132 = load i32, ptr %16, align 4
  %133 = icmp ugt i32 %131, %132
  br i1 %133, label %134, label %183

134:                                              ; preds = %128
  %135 = load i32, ptr %16, align 4
  %136 = load i32, ptr %14, align 4
  %137 = mul i32 4, %136
  %138 = icmp ule i32 %135, %137
  br i1 %138, label %147, label %139

139:                                              ; preds = %134
  %140 = load ptr, ptr %4, align 8
  %141 = load i32, ptr %14, align 4
  %142 = zext i32 %141 to i64
  %143 = getelementptr i8, ptr %140, i64 %142
  %144 = load i8, ptr %143, align 1
  %145 = sext i8 %144 to i32
  %146 = icmp eq i32 %145, 42
  br i1 %146, label %147, label %152

147:                                              ; preds = %139, %134
  %148 = load ptr, ptr %4, align 8
  %149 = load i32, ptr %14, align 4
  %150 = zext i32 %149 to i64
  %151 = getelementptr i8, ptr %148, i64 %150
  store i8 42, ptr %151, align 1
  br label %182

152:                                              ; preds = %139
  %153 = load ptr, ptr %4, align 8
  %154 = load i32, ptr %14, align 4
  %155 = zext i32 %154 to i64
  %156 = getelementptr i8, ptr %153, i64 %155
  %157 = call i32 (ptr, ptr, ...) @__isoc99_sscanf(ptr noundef %156, ptr noundef @.str.225, ptr noundef %15) #17
  %158 = icmp eq i32 %157, -1
  br i1 %158, label %159, label %160

159:                                              ; preds = %152
  br label %187

160:                                              ; preds = %152
  %161 = load i32, ptr %14, align 4
  %162 = add i32 %161, 1
  %163 = mul i32 4, %162
  %164 = load i32, ptr %16, align 4
  %165 = sub i32 %163, %164
  %166 = shl i32 15, %165
  %167 = load i32, ptr %15, align 4
  %168 = and i32 %167, %166
  store i32 %168, ptr %15, align 4
  %169 = load i32, ptr %15, align 4
  %170 = and i32 %169, 15
  store i32 %170, ptr %15, align 4
  %171 = load ptr, ptr %4, align 8
  %172 = load i32, ptr %14, align 4
  %173 = zext i32 %172 to i64
  %174 = getelementptr i8, ptr %171, i64 %173
  %175 = load ptr, ptr %4, align 8
  %176 = load i32, ptr %14, align 4
  %177 = zext i32 %176 to i64
  %178 = getelementptr i8, ptr %175, i64 %177
  %179 = call i64 @llvm.objectsize.i64.p0(ptr %178, i1 false, i1 true, i1 true)
  %180 = load i32, ptr %15, align 4
  %181 = call i32 (ptr, i64, i32, i64, ptr, ...) @__snprintf_chk(ptr noundef %174, i64 noundef 4, i32 noundef 2, i64 noundef %179, ptr noundef @.str.225, i32 noundef %180)
  br label %182

182:                                              ; preds = %160, %147
  br label %183

183:                                              ; preds = %182, %128
  br label %184

184:                                              ; preds = %183
  %185 = load i32, ptr %14, align 4
  %186 = add i32 %185, 1
  store i32 %186, ptr %14, align 4
  br label %125, !llvm.loop !35

187:                                              ; preds = %159, %125
  %188 = load i32, ptr %10, align 4
  %189 = icmp slt i32 %188, 32
  br i1 %189, label %190, label %198

190:                                              ; preds = %187
  %191 = load ptr, ptr %5, align 8
  %192 = call i64 @strlen(ptr noundef %191) #21
  %193 = trunc i64 %192 to i32
  %194 = load i32, ptr %9, align 4
  %195 = sub i32 %193, %194
  %196 = load i32, ptr %11, align 4
  %197 = sub i32 %195, %196
  store i32 %197, ptr %3, align 4
  store i32 1, ptr %18, align 4
  br label %204

198:                                              ; preds = %187
  %199 = load ptr, ptr %5, align 8
  %200 = call i64 @strlen(ptr noundef %199) #21
  %201 = trunc i64 %200 to i32
  %202 = load i32, ptr %9, align 4
  %203 = sub i32 %201, %202
  store i32 %203, ptr %3, align 4
  store i32 1, ptr %18, align 4
  br label %204

204:                                              ; preds = %198, %190, %63, %25
  call void @llvm.lifetime.end.p0(i64 8, ptr %17) #17
  call void @llvm.lifetime.end.p0(i64 4, ptr %16) #17
  call void @llvm.lifetime.end.p0(i64 4, ptr %15) #17
  call void @llvm.lifetime.end.p0(i64 4, ptr %14) #17
  call void @llvm.lifetime.end.p0(i64 4, ptr %13) #17
  call void @llvm.lifetime.end.p0(i64 4, ptr %12) #17
  call void @llvm.lifetime.end.p0(i64 4, ptr %11) #17
  call void @llvm.lifetime.end.p0(i64 4, ptr %10) #17
  call void @llvm.lifetime.end.p0(i64 4, ptr %9) #17
  call void @llvm.lifetime.end.p0(i64 8, ptr %8) #17
  call void @llvm.lifetime.end.p0(i64 33, ptr %7) #17
  call void @llvm.lifetime.end.p0(i64 33, ptr %6) #17
  %205 = load i32, ptr %3, align 4
  ret i32 %205
}