; Function Attrs: null_pointer_is_valid sspstrong uwtable
define internal fastcc i32 @get_full_ipv6_addr(ptr noundef %0, ptr noundef %1) unnamed_addr #0 {
  %3 = alloca [33 x i8], align 16
  %4 = alloca [33 x i8], align 16
  %5 = alloca i32, align 4
  %6 = alloca i32, align 4
  call void @llvm.lifetime.start.p0(i64 33, ptr nonnull %3) #20
  call void @llvm.lifetime.start.p0(i64 33, ptr nonnull %4) #20
  call void @llvm.lifetime.start.p0(i64 4, ptr nonnull %5) #20
  store i32 0, ptr %5, align 4
  call void @llvm.lifetime.start.p0(i64 4, ptr nonnull %6) #20
  store i32 128, ptr %6, align 4
  %7 = icmp eq ptr %1, null
  br i1 %7, label %86, label %8

8:                                                ; preds = %2
  %strcmpload = load i8, ptr %1, align 1
  %9 = icmp eq i8 %strcmpload, 0
  br i1 %9, label %86, label %10

10:                                               ; preds = %8
  tail call void @llvm.memset.p0.i64(ptr noundef align 1 dereferenceable(32) %0, i8 noundef 0, i64 noundef 32, i1 noundef false) #20
  %11 = tail call ptr @strchr(ptr noundef nonnull dereferenceable(1) %1, i32 noundef 47) #22
  %.not = icmp eq ptr %11, null
  br i1 %.not, label %17, label %12

12:                                               ; preds = %10
  %13 = call i32 (ptr, ptr, ...) @__isoc99_sscanf(ptr noundef nonnull %11, ptr noundef nonnull @.str.222, ptr noundef nonnull %6) #20
  %14 = icmp eq i32 %13, -1
  br i1 %14, label %15, label %16

15:                                               ; preds = %12
  store i32 128, ptr %6, align 4
  br label %16

16:                                               ; preds = %15, %12
  store i8 0, ptr %11, align 1
  br label %17

17:                                               ; preds = %16, %10
  %18 = call i64 @strlen(ptr noundef nonnull dereferenceable(1) %1) #22
  %19 = icmp eq i64 %18, 1
  br i1 %19, label %20, label %24

20:                                               ; preds = %17
  %21 = load i8, ptr %1, align 1
  %22 = icmp eq i8 %21, 42
  br i1 %22, label %.preheader.preheader, label %24

.preheader.preheader:                             ; preds = %20
  call void @llvm.memset.p0.i64(ptr noundef align 1 dereferenceable(32) %0, i8 42, i64 32, i1 false)
  %23 = getelementptr i8, ptr %0, i64 32
  store i8 0, ptr %23, align 1
  br label %86

24:                                               ; preds = %20, %17
  %25 = call fastcc i32 @get_ipv6_suffix(ptr noundef nonnull %3, ptr noundef nonnull %1)
  %26 = call i64 @strlen(ptr noundef nonnull dereferenceable(1) %3) #22
  %27 = trunc i64 %26 to i32
  %28 = icmp slt i32 %27, 32
  br i1 %28, label %29, label %39

29:                                               ; preds = %24
  %30 = call ptr @wmem_packet_scope()
  %31 = call i64 @strlen(ptr noundef nonnull dereferenceable(1) %1) #22
  %32 = sext i32 %25 to i64
  %33 = sub i64 %31, %32
  %34 = call noalias ptr @wmem_strndup(ptr noundef %30, ptr noundef nonnull %1, i64 noundef %33)
  %35 = call fastcc i32 @get_ipv6_suffix(ptr noundef nonnull %4, ptr noundef %34)
  %36 = call i64 @strlen(ptr noundef nonnull dereferenceable(1) %4) #22
  %37 = trunc i64 %36 to i32
  %sext = shl i64 %36, 32
  %38 = ashr exact i64 %sext, 32
  call void @llvm.memcpy.p0.p0.i64(ptr noundef align 1 %0, ptr noundef nonnull align 16 %4, i64 noundef range(i64 -2147483648, 2147483648) %38, i1 noundef false) #20
  br label %39

39:                                               ; preds = %29, %24
  %.055 = phi i32 [ %35, %29 ], [ 0, %24 ]
  %.054 = phi i32 [ %37, %29 ], [ 0, %24 ]
  %40 = add i32 %.054, %27
  %41 = sub i32 32, %40
  %.not6168 = icmp slt i32 %41, 0
  br i1 %.not6168, label %._crit_edge, label %.lr.ph.preheader

.lr.ph.preheader:                                 ; preds = %39
  %42 = zext nneg i32 %41 to i64
  br label %.lr.ph

.lr.ph:                                           ; preds = %.lr.ph.preheader, %.lr.ph
  %indvars.iv = phi i64 [ 0, %.lr.ph.preheader ], [ %indvars.iv.next, %.lr.ph ]
  %43 = trunc nuw nsw i64 %indvars.iv to i32
  %44 = add i32 %.054, %43
  %45 = sext i32 %44 to i64
  %46 = getelementptr i8, ptr %0, i64 %45
  store i8 48, ptr %46, align 1
  %indvars.iv.next = add nuw nsw i64 %indvars.iv, 1
  %.not61.not = icmp samesign ult i64 %indvars.iv, %42
  br i1 %.not61.not, label %.lr.ph, label %._crit_edge, !llvm.loop !52

._crit_edge:                                      ; preds = %.lr.ph, %39
  %47 = getelementptr i8, ptr %0, i64 32
  %sext62 = shl i64 %26, 32
  %48 = ashr exact i64 %sext62, 32
  %49 = sub nsw i64 0, %48
  %50 = getelementptr i8, ptr %47, i64 %49
  %sext63 = add i64 %sext62, 4294967296
  %51 = ashr exact i64 %sext63, 32
  call void @llvm.memcpy.p0.p0.i64(ptr noundef align 1 %50, ptr noundef nonnull align 16 %3, i64 noundef range(i64 -2147483648, 2147483648) %51, i1 noundef false) #20
  br label %52

52:                                               ; preds = %._crit_edge, %77
  %indvars.iv73 = phi i64 [ 0, %._crit_edge ], [ %indvars.iv.next74, %77 ]
  %indvars.iv.next74 = add nuw nsw i64 %indvars.iv73, 1
  %53 = shl nuw nsw i64 %indvars.iv.next74, 2
  %54 = load i32, ptr %6, align 4
  %55 = zext i32 %54 to i64
  %56 = icmp samesign ugt i64 %53, %55
  br i1 %56, label %57, label %77

57:                                               ; preds = %52
  %58 = shl nuw nsw i64 %indvars.iv73, 2
  %.not64 = icmp samesign ult i64 %58, %55
  br i1 %.not64, label %59, label %63

59:                                               ; preds = %57
  %60 = getelementptr i8, ptr %0, i64 %indvars.iv73
  %61 = load i8, ptr %60, align 1
  %62 = icmp eq i8 %61, 42
  br i1 %62, label %63, label %65

63:                                               ; preds = %59, %57
  %64 = getelementptr i8, ptr %0, i64 %indvars.iv73
  store i8 42, ptr %64, align 1
  br label %77

65:                                               ; preds = %59
  %66 = call i32 (ptr, ptr, ...) @__isoc99_sscanf(ptr noundef %60, ptr noundef nonnull @.str.225, ptr noundef nonnull %5) #20
  %67 = icmp eq i32 %66, -1
  br i1 %67, label %78, label %68

68:                                               ; preds = %65
  %69 = load i32, ptr %6, align 4
  %70 = trunc nuw nsw i64 %53 to i32
  %71 = sub i32 %70, %69
  %72 = shl i32 15, %71
  %73 = load i32, ptr %5, align 4
  %74 = and i32 %73, 15
  %75 = and i32 %74, %72
  store i32 %75, ptr %5, align 4
  %76 = call i32 (ptr, i64, i32, i64, ptr, ...) @__snprintf_chk(ptr noundef %60, i64 noundef 4, i32 noundef 2, i64 noundef -1, ptr noundef nonnull @.str.225, i32 noundef %75)
  br label %77

77:                                               ; preds = %52, %68, %63
  %exitcond.not = icmp eq i64 %indvars.iv.next74, 32
  br i1 %exitcond.not, label %78, label %52, !llvm.loop !53

78:                                               ; preds = %65, %77
  %79 = call i64 @strlen(ptr noundef nonnull dereferenceable(1) %1) #22
  %80 = trunc i64 %79 to i32
  br i1 %28, label %81, label %84

81:                                               ; preds = %78
  %82 = add i32 %.055, %25
  %83 = sub i32 %80, %82
  br label %86

84:                                               ; preds = %78
  %85 = sub i32 %80, %25
  br label %86

86:                                               ; preds = %2, %8, %84, %81, %.preheader.preheader
  %.056 = phi i32 [ 0, %.preheader.preheader ], [ %83, %81 ], [ %85, %84 ], [ -1, %8 ], [ -1, %2 ]
  call void @llvm.lifetime.end.p0(i64 4, ptr nonnull %6) #20
  call void @llvm.lifetime.end.p0(i64 4, ptr nonnull %5) #20
  call void @llvm.lifetime.end.p0(i64 33, ptr nonnull %4) #20
  call void @llvm.lifetime.end.p0(i64 33, ptr nonnull %3) #20
  ret i32 %.056
}